target datalayout = "e-m:e-p270:32:32-p271:32:32-p272:64:64-i64:64-i128:128-f80:128-n8:16:32:64-S128"
target triple = "x86_64-pc-linux-gnu"

%struct._zval_struct = type { %union._zend_value, %union.anon, %union.anon.2 }
%union._zend_value = type { i64 }
%union.anon = type { i32 }
%union.anon.2 = type { i32 }
%struct._zend_refcounted_h = type { i32, %union.anon.6 }
%union.anon.6 = type { i32 }
%struct._zend_string = type { %struct._zend_refcounted_h, i64, i64, [1 x i8] }
%struct._pdo_stmt_t = type { ptr, ptr, [6 x i8], i16, ptr, ptr, ptr, ptr, i32, i32, %union.anon.3, ptr, ptr, ptr, i64, ptr, ptr, ptr, %struct._zend_object }
%union.anon.3 = type { %struct.anon.5 }
%struct.anon.5 = type { %struct._zend_fcall_info_cache }
%struct._zend_fcall_info_cache = type { ptr, ptr, ptr, ptr, ptr }
%struct._zend_object = type { %struct._zend_refcounted_h, i32, i32, ptr, ptr, ptr, [1 x %struct._zval_struct] }
%struct._pdo_dbh_t = type { ptr, ptr, ptr, ptr, i32, ptr, i64, [6 x i8], i32, i32, i32, ptr, i64, i32, [2 x ptr], ptr, ptr, %struct._zval_struct, ptr, ptr, i32 }

@.str.1 = private unnamed_addr constant [10 x i8] c"errorInfo\00", align 1
@.str.2 = private unnamed_addr constant [5 x i8] c"code\00", align 1
@.str.3 = private unnamed_addr constant [8 x i8] c"message\00", align 1
@.str.4 = private unnamed_addr constant [18 x i8] c"<<Unknown error>>\00", align 1
@.str.5 = private unnamed_addr constant [21 x i8] c"SQLSTATE[%s]: %s: %s\00", align 1
@.str.6 = private unnamed_addr constant [17 x i8] c"SQLSTATE[%s]: %s\00", align 1
@.str.7 = private unnamed_addr constant [3 x i8] c"%s\00", align 1
@zend_ce_exception = external global ptr, align 8

; Function Attrs: alwaysinline nounwind uwtable
define internal i32 @zend_gc_delref(ptr noundef %0) #3 {
  %2 = alloca ptr, align 8
  store ptr %0, ptr %2, align 8, !tbaa !142
  %3 = load ptr, ptr %2, align 8, !tbaa !142
  %4 = getelementptr inbounds nuw %struct._zend_refcounted_h, ptr %3, i32 0, i32 0
  %5 = load i32, ptr %4, align 4, !tbaa !144
  %6 = icmp ugt i32 %5, 0
  call void @llvm.assume(i1 %6)
  br label %7

7:                                                ; preds = %1
  br label %8

8:                                                ; preds = %7
  %9 = load ptr, ptr %2, align 8, !tbaa !142
  %10 = getelementptr inbounds nuw %struct._zend_refcounted_h, ptr %9, i32 0, i32 0
  %11 = load i32, ptr %10, align 4, !tbaa !144
  %12 = add i32 %11, -1
  store i32 %12, ptr %10, align 4, !tbaa !144
  ret i32 %12
}

; Function Attrs: alwaysinline nounwind uwtable
define internal i32 @zval_gc_flags(i32 noundef %0) #3 {
  %2 = alloca i32, align 4
  store i32 %0, ptr %2, align 4, !tbaa !4
  %3 = load i32, ptr %2, align 4, !tbaa !4
  %4 = lshr i32 %3, 0
  %5 = and i32 %4, 1008
  ret i32 %5
}

; Function Attrs: alwaysinline nounwind uwtable
define internal void @zend_string_release_ex(ptr noundef %0, i1 noundef zeroext %1) #3 {
  %3 = alloca ptr, align 8
  %4 = alloca i8, align 1
  store ptr %0, ptr %3, align 8, !tbaa !16
  %5 = zext i1 %1 to i8
  store i8 %5, ptr %4, align 1, !tbaa !18
  %6 = load ptr, ptr %3, align 8, !tbaa !16
  %7 = getelementptr inbounds nuw %struct._zend_string, ptr %6, i32 0, i32 0
  %8 = getelementptr inbounds nuw %struct._zend_refcounted_h, ptr %7, i32 0, i32 1
  %9 = load i32, ptr %8, align 4, !tbaa !15
  %10 = call i32 @zval_gc_flags(i32 noundef %9)
  %11 = and i32 %10, 64
  %12 = icmp ne i32 %11, 0
  br i1 %12, label %27, label %13

13:                                               ; preds = %2
  %14 = load ptr, ptr %3, align 8, !tbaa !16
  %15 = getelementptr inbounds nuw %struct._zend_string, ptr %14, i32 0, i32 0
  %16 = call i32 @zend_gc_delref(ptr noundef %15)
  %17 = icmp eq i32 %16, 0
  br i1 %17, label %18, label %26

18:                                               ; preds = %13
  %19 = load i8, ptr %4, align 1, !tbaa !18, !range !20, !noundef !21
  %20 = trunc i8 %19 to i1
  br i1 %20, label %21, label %23

21:                                               ; preds = %18
  %22 = load ptr, ptr %3, align 8, !tbaa !16
  call void @free(ptr noundef %22) #14
  br label %25

23:                                               ; preds = %18
  %24 = load ptr, ptr %3, align 8, !tbaa !16
  call void @_efree(ptr noundef %24)
  br label %25

25:                                               ; preds = %23, %21
  br label %26

26:                                               ; preds = %25, %13
  br label %27

27:                                               ; preds = %26, %2
  ret void
}

; Function Attrs: nounwind uwtable
define dso_local void @pdo_raise_impl_error(ptr noundef %0, ptr noundef %1, ptr noundef %2, ptr noundef %3) #0 {
  %5 = alloca ptr, align 8
  %6 = alloca ptr, align 8
  %7 = alloca ptr, align 8
  %8 = alloca ptr, align 8
  %9 = alloca ptr, align 8
  %10 = alloca ptr, align 8
  %11 = alloca ptr, align 8
  %12 = alloca %struct._zval_struct, align 8
  %13 = alloca %struct._zval_struct, align 8
  %14 = alloca ptr, align 8
  %15 = alloca ptr, align 8
  %16 = alloca ptr, align 8
  store ptr %0, ptr %5, align 8, !tbaa !63
  store ptr %1, ptr %6, align 8, !tbaa !22
  store ptr %2, ptr %7, align 8, !tbaa !8
  store ptr %3, ptr %8, align 8, !tbaa !8
  call void @llvm.lifetime.start.p0(i64 8, ptr %9) #14
  %17 = load ptr, ptr %5, align 8, !tbaa !63
  %18 = getelementptr inbounds nuw %struct._pdo_dbh_t, ptr %17, i32 0, i32 7
  store ptr %18, ptr %9, align 8, !tbaa !8
  call void @llvm.lifetime.start.p0(i64 8, ptr %10) #14
  %19 = load ptr, ptr %5, align 8, !tbaa !63
  %20 = getelementptr inbounds nuw %struct._pdo_dbh_t, ptr %19, i32 0, i32 8
  %21 = load i32, ptr %20, align 8, !tbaa !64
  %22 = icmp eq i32 %21, 0
  br i1 %22, label %23, label %24

23:                                               ; preds = %4
  br label %24

24:                                               ; preds = %23, %4
  %25 = load ptr, ptr %6, align 8, !tbaa !22
  %26 = icmp ne ptr %25, null
  br i1 %26, label %27, label %30

27:                                               ; preds = %24
  %28 = load ptr, ptr %6, align 8, !tbaa !22
  %29 = getelementptr inbounds nuw %struct._pdo_stmt_t, ptr %28, i32 0, i32 2
  store ptr %29, ptr %9, align 8, !tbaa !8
  br label %30

30:                                               ; preds = %27, %24
  %31 = load ptr, ptr %9, align 8, !tbaa !8
  %32 = getelementptr inbounds [6 x i8], ptr %31, i64 0, i64 0
  %33 = load ptr, ptr %7, align 8, !tbaa !8
  call void @llvm.memcpy.p0.p0.i64(ptr align 1 %32, ptr align 1 %33, i64 6, i1 false)
  %34 = load ptr, ptr %9, align 8, !tbaa !8
  %35 = getelementptr inbounds [6 x i8], ptr %34, i64 0, i64 0
  %36 = call ptr @pdo_sqlstate_state_to_description(ptr noundef %35)
  store ptr %36, ptr %10, align 8, !tbaa !8
  %37 = load ptr, ptr %10, align 8, !tbaa !8
  %38 = icmp ne ptr %37, null
  br i1 %38, label %40, label %39

39:                                               ; preds = %30
  store ptr @.str.4, ptr %10, align 8, !tbaa !8
  br label %40

40:                                               ; preds = %39, %30
  call void @llvm.lifetime.start.p0(i64 8, ptr %11) #14
  store ptr null, ptr %11, align 8, !tbaa !16
  %41 = load ptr, ptr %8, align 8, !tbaa !8
  %42 = icmp ne ptr %41, null
  br i1 %42, label %43, label %49

43:                                               ; preds = %40
  %44 = load ptr, ptr %9, align 8, !tbaa !8
  %45 = getelementptr inbounds [6 x i8], ptr %44, i64 0, i64 0
  %46 = load ptr, ptr %10, align 8, !tbaa !8
  %47 = load ptr, ptr %8, align 8, !tbaa !8
  %48 = call ptr (i64, ptr, ...) @zend_strpprintf(i64 noundef 0, ptr noundef @.str.5, ptr noundef %45, ptr noundef %46, ptr noundef %47)
  store ptr %48, ptr %11, align 8, !tbaa !16
  br label %54

49:                                               ; preds = %40
  %50 = load ptr, ptr %9, align 8, !tbaa !8
  %51 = getelementptr inbounds [6 x i8], ptr %50, i64 0, i64 0
  %52 = load ptr, ptr %10, align 8, !tbaa !8
  %53 = call ptr (i64, ptr, ...) @zend_strpprintf(i64 noundef 0, ptr noundef @.str.6, ptr noundef %51, ptr noundef %52)
  store ptr %53, ptr %11, align 8, !tbaa !16
  br label %54

54:                                               ; preds = %49, %43
  %55 = load ptr, ptr %5, align 8, !tbaa !63
  %56 = getelementptr inbounds nuw %struct._pdo_dbh_t, ptr %55, i32 0, i32 8
  %57 = load i32, ptr %56, align 8, !tbaa !64
  %58 = icmp ne i32 %57, 2
  br i1 %58, label %59, label %63

59:                                               ; preds = %54
  %60 = load ptr, ptr %11, align 8, !tbaa !16
  %61 = getelementptr inbounds nuw %struct._zend_string, ptr %60, i32 0, i32 3
  %62 = getelementptr inbounds [1 x i8], ptr %61, i64 0, i64 0
  call void (ptr, i32, ptr, ...) @php_error_docref(ptr noundef null, i32 noundef 2, ptr noundef @.str.7, ptr noundef %62)
  br label %92

63:                                               ; preds = %54
  call void @llvm.lifetime.start.p0(i64 16, ptr %12) #14
  call void @llvm.lifetime.start.p0(i64 16, ptr %13) #14
  call void @llvm.lifetime.start.p0(i64 8, ptr %14) #14
  %64 = call ptr @php_pdo_get_exception()
  store ptr %64, ptr %14, align 8, !tbaa !67
  %65 = load ptr, ptr %14, align 8, !tbaa !67
  %66 = call i32 @object_init_ex(ptr noundef %12, ptr noundef %65)
  %67 = load ptr, ptr @zend_ce_exception, align 8, !tbaa !67
  %68 = getelementptr inbounds nuw %struct._zval_struct, ptr %12, i32 0, i32 0
  %69 = load ptr, ptr %68, align 8, !tbaa !15
  %70 = load ptr, ptr %11, align 8, !tbaa !16
  call void @zend_update_property_str(ptr noundef %67, ptr noundef %69, ptr noundef @.str.3, i64 noundef 7, ptr noundef %70)
  %71 = load ptr, ptr @zend_ce_exception, align 8, !tbaa !67
  %72 = getelementptr inbounds nuw %struct._zval_struct, ptr %12, i32 0, i32 0
  %73 = load ptr, ptr %72, align 8, !tbaa !15
  %74 = load ptr, ptr %9, align 8, !tbaa !8
  %75 = getelementptr inbounds [6 x i8], ptr %74, i64 0, i64 0
  call void @zend_update_property_string(ptr noundef %71, ptr noundef %73, ptr noundef @.str.2, i64 noundef 4, ptr noundef %75)
  br label %76

76:                                               ; preds = %63
  call void @llvm.lifetime.start.p0(i64 8, ptr %15) #14
  %77 = call ptr @_zend_new_array_0()
  store ptr %77, ptr %15, align 8, !tbaa !11
  call void @llvm.lifetime.start.p0(i64 8, ptr %16) #14
  store ptr %13, ptr %16, align 8, !tbaa !13
  %78 = load ptr, ptr %15, align 8, !tbaa !11
  %79 = load ptr, ptr %16, align 8, !tbaa !13
  %80 = getelementptr inbounds nuw %struct._zval_struct, ptr %79, i32 0, i32 0
  store ptr %78, ptr %80, align 8, !tbaa !15
  %81 = load ptr, ptr %16, align 8, !tbaa !13
  %82 = getelementptr inbounds nuw %struct._zval_struct, ptr %81, i32 0, i32 1
  store i32 775, ptr %82, align 8, !tbaa !15
  call void @llvm.lifetime.end.p0(i64 8, ptr %16) #14
  call void @llvm.lifetime.end.p0(i64 8, ptr %15) #14
  br label %83

83:                                               ; preds = %76
  br label %84

84:                                               ; preds = %83
  %85 = load ptr, ptr %9, align 8, !tbaa !8
  %86 = getelementptr inbounds [6 x i8], ptr %85, i64 0, i64 0
  %87 = call i32 @add_next_index_string(ptr noundef %13, ptr noundef %86)
  %88 = call i32 @add_next_index_long(ptr noundef %13, i64 noundef 0)
  %89 = load ptr, ptr %14, align 8, !tbaa !67
  %90 = getelementptr inbounds nuw %struct._zval_struct, ptr %12, i32 0, i32 0
  %91 = load ptr, ptr %90, align 8, !tbaa !15
  call void @zend_update_property(ptr noundef %89, ptr noundef %91, ptr noundef @.str.1, i64 noundef 9, ptr noundef %13)
  call void @zval_ptr_dtor(ptr noundef %13)
  call void @zend_throw_exception_object(ptr noundef %12)
  call void @llvm.lifetime.end.p0(i64 8, ptr %14) #14
  call void @llvm.lifetime.end.p0(i64 16, ptr %13) #14
  call void @llvm.lifetime.end.p0(i64 16, ptr %12) #14
  br label %92

92:                                               ; preds = %84, %59
  %93 = load ptr, ptr %11, align 8, !tbaa !16
  call void @zend_string_release_ex(ptr noundef %93, i1 noundef zeroext false)
  call void @llvm.lifetime.end.p0(i64 8, ptr %11) #14
  call void @llvm.lifetime.end.p0(i64 8, ptr %10) #14
  call void @llvm.lifetime.end.p0(i64 8, ptr %9) #14
  ret void
}