; Function Attrs: nounwind uwtable
define dso_local void @pdo_raise_impl_error(ptr noundef %0, ptr noundef %1, ptr noundef readonly captures(none) %2, ptr noundef %3) local_unnamed_addr #0 {
  %5 = alloca %struct._zval_struct, align 8
  %6 = alloca %struct._zval_struct, align 8
  %7 = getelementptr inbounds nuw i8, ptr %0, i64 56
  %8 = getelementptr inbounds nuw i8, ptr %0, i64 64
  %.not = icmp eq ptr %1, null
  %9 = getelementptr inbounds nuw i8, ptr %1, i64 16
  %spec.select = select i1 %.not, ptr %7, ptr %9
  tail call void @llvm.memcpy.p0.p0.i64(ptr noundef nonnull align 1 dereferenceable(6) %spec.select, ptr noundef nonnull align 1 dereferenceable(6) %2, i64 6, i1 false)
  %10 = tail call ptr @pdo_sqlstate_state_to_description(ptr noundef nonnull %spec.select) #13
  %.not28 = icmp eq ptr %10, null
  %spec.store.select = select i1 %.not28, ptr @.str.4, ptr %10
  %.not29 = icmp eq ptr %3, null
  br i1 %.not29, label %13, label %11

11:                                               ; preds = %4
  %12 = tail call ptr (i64, ptr, ...) @zend_strpprintf(i64 noundef 0, ptr noundef nonnull @.str.5, ptr noundef nonnull %spec.select, ptr noundef nonnull %spec.store.select, ptr noundef nonnull %3) #13
  br label %15

13:                                               ; preds = %4
  %14 = tail call ptr (i64, ptr, ...) @zend_strpprintf(i64 noundef 0, ptr noundef nonnull @.str.6, ptr noundef nonnull %spec.select, ptr noundef nonnull %spec.store.select) #13
  br label %15

15:                                               ; preds = %13, %11
  %.025 = phi ptr [ %12, %11 ], [ %14, %13 ]
  %16 = load i32, ptr %8, align 8, !tbaa !54
  %.not30 = icmp eq i32 %16, 2
  br i1 %.not30, label %19, label %17

17:                                               ; preds = %15
  %18 = getelementptr inbounds nuw i8, ptr %.025, i64 24
  tail call void (ptr, i32, ptr, ...) @php_error_docref(ptr noundef null, i32 noundef 2, ptr noundef nonnull @.str.7, ptr noundef nonnull %18) #13
  br label %31

19:                                               ; preds = %15
  call void @llvm.lifetime.start.p0(i64 16, ptr nonnull %5) #13
  call void @llvm.lifetime.start.p0(i64 16, ptr nonnull %6) #13
  %20 = tail call ptr @php_pdo_get_exception() #13
  %21 = call i32 @object_init_ex(ptr noundef nonnull %5, ptr noundef %20) #13
  %22 = load ptr, ptr @zend_ce_exception, align 8, !tbaa !58
  %23 = load ptr, ptr %5, align 8, !tbaa !4
  call void @zend_update_property_str(ptr noundef %22, ptr noundef %23, ptr noundef nonnull @.str.3, i64 noundef 7, ptr noundef %.025) #13
  %24 = load ptr, ptr @zend_ce_exception, align 8, !tbaa !58
  %25 = load ptr, ptr %5, align 8, !tbaa !4
  call void @zend_update_property_string(ptr noundef %24, ptr noundef %25, ptr noundef nonnull @.str.2, i64 noundef 4, ptr noundef nonnull %spec.select) #13
  %26 = call ptr @_zend_new_array_0() #13
  store ptr %26, ptr %6, align 8, !tbaa !4
  %27 = getelementptr inbounds nuw i8, ptr %6, i64 8
  store i32 775, ptr %27, align 8, !tbaa !4
  %28 = call i32 @add_next_index_string(ptr noundef nonnull %6, ptr noundef nonnull %spec.select) #13
  %29 = call i32 @add_next_index_long(ptr noundef nonnull %6, i64 noundef 0) #13
  %30 = load ptr, ptr %5, align 8, !tbaa !4
  call void @zend_update_property(ptr noundef %20, ptr noundef %30, ptr noundef nonnull @.str.1, i64 noundef 9, ptr noundef nonnull %6) #13
  call void @zval_ptr_dtor(ptr noundef nonnull %6) #13
  call void @zend_throw_exception_object(ptr noundef nonnull %5) #13
  call void @llvm.lifetime.end.p0(i64 16, ptr nonnull %6) #13
  call void @llvm.lifetime.end.p0(i64 16, ptr nonnull %5) #13
  br label %31

31:                                               ; preds = %19, %17
  %32 = getelementptr inbounds nuw i8, ptr %.025, i64 4
  %33 = load i32, ptr %32, align 4, !tbaa !4
  %34 = and i32 %33, 64
  %.not.i = icmp eq i32 %34, 0
  br i1 %.not.i, label %35, label %zend_string_release_ex.exit

35:                                               ; preds = %31
  %36 = load i32, ptr %.025, align 4, !tbaa !7
  %37 = icmp ne i32 %36, 0
  call void @llvm.assume(i1 %37)
  %38 = add i32 %36, -1
  store i32 %38, ptr %.025, align 4, !tbaa !7
  %39 = icmp eq i32 %38, 0
  br i1 %39, label %40, label %zend_string_release_ex.exit

40:                                               ; preds = %35
  call void @_efree(ptr noundef nonnull %.025) #13
  br label %zend_string_release_ex.exit

zend_string_release_ex.exit:                      ; preds = %31, %35, %40
  ret void
}